; Function Attrs: mustprogress nofree norecurse nosync nounwind willreturn memory(readwrite, inaccessiblemem: none) uwtable
define internal void @_ZN12_GLOBAL__N_123maxCoordinateDifferenceEN3gmx8ArrayRefIKNS0_11BasicVectorIfEEEES5_P10tmpi_comm_.omp_outlined.omp.reduction.reduction_func(ptr nocapture noundef readonly %0, ptr nocapture noundef readonly %1) #18 {
  %3 = load ptr, ptr %1, align 8
  %4 = load ptr, ptr %0, align 8
  %5 = load float, ptr %4, align 4
  %6 = load float, ptr %3, align 4
  %7 = fcmp ogt float %5, %6
  %. = select i1 %7, float %5, float %6
  store float %., ptr %4, align 4
  ret void
}